target datalayout = "e-m:e-p270:32:32-p271:32:32-p272:64:64-i64:64-i128:128-f80:128-n8:16:32:64-S128"
target triple = "x86_64-pc-linux-gnu"

%struct.BackendGlobalData = type <{ ptr, ptr, i8, i8, i8, i8, i8, i8, i8, i8, i8, [3 x i8], i32, ptr, ptr, ptr, ptr, ptr, ptr, ptr, ptr, ptr, ptr, ptr, ptr, ptr, i32, %struct.jvmtiCapabilities, i8, [3 x i8], %struct.jvmtiEventCallbacks, ptr, ptr, ptr, ptr, ptr, ptr, ptr, i32, [4 x i8], ptr, i64, i32, [4 x i8], ptr, i32, i32, i8, i8, [6 x i8] }>
%struct.jvmtiCapabilities = type { i64, i64 }
%struct.jvmtiEventCallbacks = type { ptr, ptr, ptr, ptr, ptr, ptr, ptr, ptr, ptr, ptr, ptr, ptr, ptr, ptr, ptr, ptr, ptr, ptr, ptr, ptr, ptr, ptr, ptr, ptr, ptr, ptr, ptr, ptr, ptr, ptr, ptr, ptr, ptr, ptr, ptr, ptr, ptr, ptr, ptr }
%struct.jvmtiInterface_1_ = type { ptr, ptr, ptr, ptr, ptr, ptr, ptr, ptr, ptr, ptr, ptr, ptr, ptr, ptr, ptr, ptr, ptr, ptr, ptr, ptr, ptr, ptr, ptr, ptr, ptr, ptr, ptr, ptr, ptr, ptr, ptr, ptr, ptr, ptr, ptr, ptr, ptr, ptr, ptr, ptr, ptr, ptr, ptr, ptr, ptr, ptr, ptr, ptr, ptr, ptr, ptr, ptr, ptr, ptr, ptr, ptr, ptr, ptr, ptr, ptr, ptr, ptr, ptr, ptr, ptr, ptr, ptr, ptr, ptr, ptr, ptr, ptr, ptr, ptr, ptr, ptr, ptr, ptr, ptr, ptr, ptr, ptr, ptr, ptr, ptr, ptr, ptr, ptr, ptr, ptr, ptr, ptr, ptr, ptr, ptr, ptr, ptr, ptr, ptr, ptr, ptr, ptr, ptr, ptr, ptr, ptr, ptr, ptr, ptr, ptr, ptr, ptr, ptr, ptr, ptr, ptr, ptr, ptr, ptr, ptr, ptr, ptr, ptr, ptr, ptr, ptr, ptr, ptr, ptr, ptr, ptr, ptr, ptr, ptr, ptr, ptr, ptr, ptr, ptr, ptr, ptr, ptr, ptr, ptr, ptr, ptr, ptr, ptr, ptr, ptr, ptr, ptr, ptr, ptr, ptr, ptr }

@gdata = hidden global ptr null, align 8
@stderr = external global ptr, align 8
@.str = private unnamed_addr constant [17 x i8] c"JDWP exit error \00", align 1
@.str.1 = private unnamed_addr constant [2 x i8] c"\0A\00", align 1
@.str.2 = private unnamed_addr constant [19 x i8] c"%s(%d): %s [%s:%d]\00", align 1
@.str.4 = private unnamed_addr constant [47 x i8] c"src/jdk.jdwp.agent/share/native/libjdwp/util.c\00", align 1
@.str.9 = private unnamed_addr constant [5 x i8] c"%s()\00", align 1
@.str.45 = private unnamed_addr constant [6 x i8] c"JVMTI\00", align 1
@.str.72 = private unnamed_addr constant [5 x i8] c"MISC\00", align 1
@.str.92 = private unnamed_addr constant [18 x i8] c"DestroyRawMonitor\00", align 1
@.str.93 = private unnamed_addr constant [30 x i8] c"on destruction of raw monitor\00", align 1
@.str.161 = private unnamed_addr constant [29 x i8] c"VM_DEAD, in debugMonitor*()?\00", align 1

; Function Attrs: nounwind uwtable
define internal i32 @ignore_vm_death(i32 noundef %0) #0 {
  %2 = alloca i32, align 4
  %3 = alloca i32, align 4
  store i32 %0, ptr %3, align 4
  %4 = load i32, ptr %3, align 4
  %5 = icmp eq i32 %4, 112
  br i1 %5, label %6, label %15

6:                                                ; preds = %1
  %7 = load ptr, ptr @gdata, align 8
  %8 = getelementptr inbounds %struct.BackendGlobalData, ptr %7, i32 0, i32 38
  %9 = load i32, ptr %8, align 8
  %10 = and i32 %9, 8
  %11 = icmp ne i32 %10, 0
  br i1 %11, label %12, label %13

12:                                               ; preds = %6
  call void @log_message_begin(ptr noundef @.str.72, ptr noundef @.str.4, i32 noundef 1000)
  call void (ptr, ...) @log_message_end(ptr noundef @.str.161)
  br label %14

13:                                               ; preds = %6
  br label %14

14:                                               ; preds = %13, %12
  store i32 0, ptr %2, align 4
  br label %17

15:                                               ; preds = %1
  %16 = load i32, ptr %3, align 4
  store i32 %16, ptr %2, align 4
  br label %17

17:                                               ; preds = %15, %14
  %18 = load i32, ptr %2, align 4
  ret i32 %18
}

; Function Attrs: nounwind uwtable
define hidden void @debugMonitorDestroy(ptr noundef %0) #0 {
  %2 = alloca ptr, align 8
  %3 = alloca i32, align 4
  store ptr %0, ptr %2, align 8
  %4 = load ptr, ptr @gdata, align 8
  %5 = getelementptr inbounds %struct.BackendGlobalData, ptr %4, i32 0, i32 38
  %6 = load i32, ptr %5, align 8
  %7 = and i32 %6, 4
  %8 = icmp ne i32 %7, 0
  br i1 %8, label %9, label %10

9:                                                ; preds = %1
  call void @log_message_begin(ptr noundef @.str.45, ptr noundef @.str.4, i32 noundef 1121)
  call void (ptr, ...) @log_message_end(ptr noundef @.str.9, ptr noundef @.str.92)
  br label %11

10:                                               ; preds = %1
  br label %11

11:                                               ; preds = %10, %9
  %12 = load ptr, ptr @gdata, align 8
  %13 = getelementptr inbounds %struct.BackendGlobalData, ptr %12, i32 0, i32 0
  %14 = load ptr, ptr %13, align 8
  %15 = load ptr, ptr %14, align 8
  %16 = getelementptr inbounds %struct.jvmtiInterface_1_, ptr %15, i32 0, i32 31
  %17 = load ptr, ptr %16, align 8
  %18 = load ptr, ptr @gdata, align 8
  %19 = getelementptr inbounds %struct.BackendGlobalData, ptr %18, i32 0, i32 0
  %20 = load ptr, ptr %19, align 8
  %21 = load ptr, ptr %2, align 8
  %22 = call i32 %17(ptr noundef %20, ptr noundef %21)
  store i32 %22, ptr %3, align 4
  %23 = load i32, ptr %3, align 4
  %24 = call i32 @ignore_vm_death(i32 noundef %23)
  store i32 %24, ptr %3, align 4
  %25 = load i32, ptr %3, align 4
  %26 = icmp ne i32 %25, 0
  br i1 %26, label %27, label %33

27:                                               ; preds = %11
  %28 = load ptr, ptr @stderr, align 8
  %29 = load i32, ptr %3, align 4
  %30 = call ptr @jvmtiErrorText(i32 noundef %29)
  %31 = load i32, ptr %3, align 4
  call void (ptr, ptr, ptr, ptr, ...) @print_message(ptr noundef %28, ptr noundef @.str, ptr noundef @.str.1, ptr noundef @.str.2, ptr noundef %30, i32 noundef %31, ptr noundef @.str.93, ptr noundef @.str.4, i32 noundef 1125)
  %32 = load i32, ptr %3, align 4
  call void @debugInit_exit(i32 noundef %32, ptr noundef @.str.93)
  br label %33

33:                                               ; preds = %27, %11
  ret void
}